; Function Attrs: nounwind uwtable
define void @Acec_MultFuncTest4() local_unnamed_addr #0 {
  %1 = alloca i32, align 4
  %2 = alloca i32, align 4
  %3 = alloca i32, align 4
  %4 = tail call noalias dereferenceable_or_null(16) ptr @malloc(i64 noundef 16) #13
  %5 = getelementptr inbounds nuw i8, ptr %4, i64 4
  store i32 0, ptr %5, align 4, !tbaa !27
  store i32 1000, ptr %4, align 8, !tbaa !32
  %6 = tail call noalias dereferenceable_or_null(4000) ptr @malloc(i64 noundef 4000) #13
  %7 = getelementptr inbounds nuw i8, ptr %4, i64 8
  store ptr %6, ptr %7, align 8, !tbaa !30
  call void @llvm.lifetime.start.p0(i64 4, ptr nonnull %1) #11
  call void @llvm.lifetime.start.p0(i64 4, ptr nonnull %2) #11
  store i32 62400, ptr %2, align 4, !tbaa !16
  call void @llvm.lifetime.start.p0(i64 4, ptr nonnull %3) #11
  %8 = tail call i32 @Extra_TruthCanonNPN2(i32 noundef 62400, i32 noundef 4, ptr noundef nonnull %4)
  store i32 %8, ptr %3, align 4, !tbaa !16
  %9 = load ptr, ptr @stdout, align 8, !tbaa !20
  call void @Extra_PrintHex(ptr noundef %9, ptr noundef nonnull %2, i32 noundef 4) #11
  %putchar = call i32 @putchar(i32 10)
  %10 = load ptr, ptr @stdout, align 8, !tbaa !20
  call void @Extra_PrintHex(ptr noundef %10, ptr noundef nonnull %3, i32 noundef 4) #11
  %putchar8 = call i32 @putchar(i32 10)
  %.val10 = load i32, ptr %5, align 4, !tbaa !27
  %11 = call i32 (ptr, ...) @printf(ptr noundef nonnull dereferenceable(1) @.str.1, i32 noundef %.val10)
  %12 = icmp sgt i32 %.val10, 0
  %.pre = load ptr, ptr %7, align 8, !tbaa !30
  br i1 %12, label %.lr.ph, label %.critedge

.lr.ph:                                           ; preds = %0
  %wide.trip.count = zext nneg i32 %.val10 to i64
  br label %13

13:                                               ; preds = %.lr.ph, %22
  %indvars.iv = phi i64 [ 0, %.lr.ph ], [ %indvars.iv.next, %22 ]
  %14 = getelementptr inbounds nuw i32, ptr %.pre, i64 %indvars.iv
  %15 = load i32, ptr %14, align 4, !tbaa !16
  store i32 %15, ptr %1, align 4, !tbaa !16
  %16 = load ptr, ptr @stdout, align 8, !tbaa !20
  call void @Extra_PrintHex(ptr noundef %16, ptr noundef nonnull %1, i32 noundef 4) #11
  %17 = call i32 (ptr, ...) @printf(ptr noundef nonnull dereferenceable(1) @.str.2)
  %18 = trunc nuw nsw i64 %indvars.iv to i32
  %19 = urem i32 %18, 12
  %20 = icmp eq i32 %19, 11
  br i1 %20, label %21, label %22

21:                                               ; preds = %13
  %putchar9 = call i32 @putchar(i32 10)
  br label %22

22:                                               ; preds = %13, %21
  %indvars.iv.next = add nuw nsw i64 %indvars.iv, 1
  %exitcond.not = icmp eq i64 %indvars.iv.next, %wide.trip.count
  br i1 %exitcond.not, label %.critedge.thread, label %13, !llvm.loop !37

.critedge:                                        ; preds = %0
  %.not.i = icmp eq ptr %.pre, null
  br i1 %.not.i, label %Vec_IntFree.exit, label %.critedge.thread

.critedge.thread:                                 ; preds = %22, %.critedge
  call void @free(ptr noundef nonnull %.pre) #11
  br label %Vec_IntFree.exit

Vec_IntFree.exit:                                 ; preds = %.critedge, %.critedge.thread
  call void @free(ptr noundef nonnull %4) #11
  call void @llvm.lifetime.end.p0(i64 4, ptr nonnull %3) #11
  call void @llvm.lifetime.end.p0(i64 4, ptr nonnull %2) #11
  call void @llvm.lifetime.end.p0(i64 4, ptr nonnull %1) #11
  ret void
}